(dp1
S'db_client'
p2
ccopy_reg
_reconstructor
p3
(ctwisted.plugin
CachedDropin
p4
c__builtin__
object
p5
NtRp6
(dp7
S'moduleName'
p8
S'twisted.plugins.db_client'
p9
sS'description'
p10
NsS'plugins'
p11
(lp12
g3
(ctwisted.plugin
CachedPlugin
p13
g5
NtRp14
(dp15
S'provided'
p16
(lp17
ctwisted.plugin
IPlugin
p18
actwisted.application.service
IServiceMaker
p19
asS'dropin'
p20
g6
sS'name'
p21
S'db_server'
p22
sg10
S'\n    Utility class to simplify the definition of L{IServiceMaker} plugins.\n    '
p23
sbasbsS'db_server'
p24
g3
(g4
g5
NtRp25
(dp26
S'moduleName'
p27
S'twisted.plugins.db_server'
p28
sS'description'
p29
NsS'plugins'
p30
(lp31
g3
(g13
g5
NtRp32
(dp33
S'provided'
p34
(lp35
g18
ag19
asS'dropin'
p36
g25
sS'name'
p37
S'db_server'
p38
sg29
S'\n    Utility class to simplify the definition of L{IServiceMaker} plugins.\n    '
p39
sbasbs.